; Function Attrs: mustprogress uwtable
define dso_local noundef zeroext i1 @_ZNK4base15DictionaryValue29GetDoubleWithoutPathExpansionENS_16BasicStringPieceINSt7__cxx1112basic_stringIcSt11char_traitsIcESaIcEEEEEPd(ptr noundef nonnull align 8 dereferenceable(64) %this, ptr %key.coerce0, i64 %key.coerce1, ptr noundef %out_value) local_unnamed_addr #3 align 2 {
entry:
  %value = alloca ptr, align 8
  %call = call noundef zeroext i1 @_ZNK4base15DictionaryValue23GetWithoutPathExpansionENS_16BasicStringPieceINSt7__cxx1112basic_stringIcSt11char_traitsIcESaIcEEEEEPPKNS_5ValueE(ptr noundef nonnull align 8 dereferenceable(64) %this, ptr %key.coerce0, i64 %key.coerce1, ptr noundef nonnull %value)
  br i1 %call, label %if.end, label %return

if.end:                                           ; preds = %entry
  %0 = load ptr, ptr %value, align 8
  %vtable = load ptr, ptr %0, align 8
  %vfn = getelementptr inbounds i8, ptr %vtable, i64 32
  %1 = load ptr, ptr %vfn, align 8
  %call2 = call noundef zeroext i1 %1(ptr noundef nonnull align 8 dereferenceable(12) %0, ptr noundef %out_value)
  br label %return

return:                                           ; preds = %entry, %if.end
  %retval.0 = phi i1 [ %call2, %if.end ], [ false, %entry ]
  ret i1 %retval.0
}